; Function Attrs: mustprogress uwtable
define noundef zeroext i1 @_ZN32pxrInternal_v0_24__pxrReserved__14UsdGeomPrimvar13_IsNamespacedERKNS_7TfTokenE(ptr nocapture noundef nonnull readonly align 8 dereferenceable(8) %0) local_unnamed_addr #1 align 2 personality ptr @__gxx_personality_v0 {
  %2 = load ptr, ptr %0, align 8
  %3 = ptrtoint ptr %2 to i64
  %4 = and i64 %3, -8
  %.not.i.i = icmp eq i64 %4, 0
  br i1 %.not.i.i, label %8, label %5

5:                                                ; preds = %1
  %6 = inttoptr i64 %4 to ptr
  %7 = getelementptr inbounds nuw i8, ptr %6, i64 16
  br label %_ZNK32pxrInternal_v0_24__pxrReserved__7TfTokencvRKNSt7__cxx1112basic_stringIcSt11char_traitsIcESaIcEEEEv.exit

8:                                                ; preds = %1
  %9 = tail call noundef nonnull align 8 dereferenceable(32) ptr @_ZN32pxrInternal_v0_24__pxrReserved__7TfToken15_GetEmptyStringB5cxx11Ev()
  br label %_ZNK32pxrInternal_v0_24__pxrReserved__7TfTokencvRKNSt7__cxx1112basic_stringIcSt11char_traitsIcESaIcEEEEv.exit

_ZNK32pxrInternal_v0_24__pxrReserved__7TfTokencvRKNSt7__cxx1112basic_stringIcSt11char_traitsIcESaIcEEEEv.exit: ; preds = %5, %8
  %10 = phi ptr [ %7, %5 ], [ %9, %8 ]
  %11 = tail call fastcc noundef ptr @_ZNK32pxrInternal_v0_24__pxrReserved__12TfStaticDataINS_12_GLOBAL__N_130_tokens_PrivateStaticTokenTypeENS_27Tf_StaticDataDefaultFactoryIS2_EEEptEv()
  %12 = load ptr, ptr %11, align 8
  %13 = ptrtoint ptr %12 to i64
  %14 = and i64 %13, -8
  %.not.i.i1 = icmp eq i64 %14, 0
  br i1 %.not.i.i1, label %18, label %15

15:                                               ; preds = %_ZNK32pxrInternal_v0_24__pxrReserved__7TfTokencvRKNSt7__cxx1112basic_stringIcSt11char_traitsIcESaIcEEEEv.exit
  %16 = inttoptr i64 %14 to ptr
  %17 = getelementptr inbounds nuw i8, ptr %16, i64 16
  br label %_ZNK32pxrInternal_v0_24__pxrReserved__7TfTokencvRKNSt7__cxx1112basic_stringIcSt11char_traitsIcESaIcEEEEv.exit2

18:                                               ; preds = %_ZNK32pxrInternal_v0_24__pxrReserved__7TfTokencvRKNSt7__cxx1112basic_stringIcSt11char_traitsIcESaIcEEEEv.exit
  %19 = tail call noundef nonnull align 8 dereferenceable(32) ptr @_ZN32pxrInternal_v0_24__pxrReserved__7TfToken15_GetEmptyStringB5cxx11Ev()
  br label %_ZNK32pxrInternal_v0_24__pxrReserved__7TfTokencvRKNSt7__cxx1112basic_stringIcSt11char_traitsIcESaIcEEEEv.exit2

_ZNK32pxrInternal_v0_24__pxrReserved__7TfTokencvRKNSt7__cxx1112basic_stringIcSt11char_traitsIcESaIcEEEEv.exit2: ; preds = %15, %18
  %20 = phi ptr [ %17, %15 ], [ %19, %18 ]
  %21 = tail call noundef ptr @_ZNKSt7__cxx1112basic_stringIcSt11char_traitsIcESaIcEE5c_strEv(ptr noundef nonnull align 8 dereferenceable(32) %20) #18
  %22 = tail call noundef ptr @_ZNKSt7__cxx1112basic_stringIcSt11char_traitsIcESaIcEE5c_strEv(ptr noundef nonnull align 8 dereferenceable(32) %10) #18
  %23 = tail call noundef i64 @_ZNKSt7__cxx1112basic_stringIcSt11char_traitsIcESaIcEE6lengthEv(ptr noundef nonnull align 8 dereferenceable(32) %10) #18
  %24 = tail call i64 @strlen(ptr noundef nonnull dereferenceable(1) %21) #19
  %.not.i.i.i = icmp ult i64 %23, %24
  br i1 %.not.i.i.i, label %_ZN32pxrInternal_v0_24__pxrReserved__18TfStringStartsWithERKNSt7__cxx1112basic_stringIcSt11char_traitsIcESaIcEEES7_.exit, label %25

25:                                               ; preds = %_ZNK32pxrInternal_v0_24__pxrReserved__7TfTokencvRKNSt7__cxx1112basic_stringIcSt11char_traitsIcESaIcEEEEv.exit2
  %26 = tail call i32 @strncmp(ptr noundef %22, ptr noundef %21, i64 noundef %24) #19
  %27 = icmp eq i32 %26, 0
  br label %_ZN32pxrInternal_v0_24__pxrReserved__18TfStringStartsWithERKNSt7__cxx1112basic_stringIcSt11char_traitsIcESaIcEEES7_.exit

_ZN32pxrInternal_v0_24__pxrReserved__18TfStringStartsWithERKNSt7__cxx1112basic_stringIcSt11char_traitsIcESaIcEEES7_.exit: ; preds = %_ZNK32pxrInternal_v0_24__pxrReserved__7TfTokencvRKNSt7__cxx1112basic_stringIcSt11char_traitsIcESaIcEEEEv.exit2, %25
  %28 = phi i1 [ false, %_ZNK32pxrInternal_v0_24__pxrReserved__7TfTokencvRKNSt7__cxx1112basic_stringIcSt11char_traitsIcESaIcEEEEv.exit2 ], [ %27, %25 ]
  ret i1 %28
}